target datalayout = "e-m:e-p270:32:32-p271:32:32-p272:64:64-i64:64-i128:128-f80:128-n8:16:32:64-S128"
target triple = "x86_64-pc-linux-gnu"

; Function Attrs: mustprogress nounwind uwtable
define hidden noundef i32 @_ZN4cvc58internal6theory15TheoryIdSetUtil13setDifferenceEjj(i32 noundef %0, i32 noundef %1) #0 align 2 {
  %3 = alloca i32, align 4
  %4 = alloca i32, align 4
  store i32 %0, ptr %3, align 4, !tbaa !21
  store i32 %1, ptr %4, align 4, !tbaa !21
  %5 = load i32, ptr %4, align 4, !tbaa !21
  %6 = xor i32 %5, -1
  %7 = load i32, ptr %3, align 4, !tbaa !21
  %8 = and i32 %6, %7
  ret i32 %8
}

; Function Attrs: mustprogress nounwind uwtable
define hidden noundef i32 @_ZN4cvc58internal6theory15TheoryIdSetUtil9setInsertENS1_8TheoryIdEj(i32 noundef %0, i32 noundef %1) #0 align 2 {
  %3 = alloca i32, align 4
  %4 = alloca i32, align 4
  store i32 %0, ptr %3, align 4, !tbaa !7
  store i32 %1, ptr %4, align 4, !tbaa !21
  %5 = load i32, ptr %4, align 4, !tbaa !21
  %6 = load i32, ptr %3, align 4, !tbaa !7
  %7 = shl i32 1, %6
  %8 = or i32 %5, %7
  ret i32 %8
}

; Function Attrs: mustprogress uwtable
define hidden noundef i32 @_ZN4cvc58internal6theory15TheoryIdSetUtil9setRemoveENS1_8TheoryIdEj(i32 noundef %0, i32 noundef %1) #1 align 2 {
  %3 = alloca i32, align 4
  %4 = alloca i32, align 4
  store i32 %0, ptr %3, align 4, !tbaa !7
  store i32 %1, ptr %4, align 4, !tbaa !21
  %5 = load i32, ptr %4, align 4, !tbaa !21
  %6 = load i32, ptr %3, align 4, !tbaa !7
  %7 = call noundef i32 @_ZN4cvc58internal6theory15TheoryIdSetUtil9setInsertENS1_8TheoryIdEj(i32 noundef %6, i32 noundef 0)
  %8 = call noundef i32 @_ZN4cvc58internal6theory15TheoryIdSetUtil13setDifferenceEjj(i32 noundef %5, i32 noundef %7)
  ret i32 %8
}

; Function Attrs: mustprogress uwtable
define hidden noundef i32 @_ZN4cvc58internal6theory15TheoryIdSetUtil6setPopERj(ptr noundef nonnull align 4 dereferenceable(4) %0) #1 align 2 {
  %2 = alloca i32, align 4
  %3 = alloca ptr, align 8
  %4 = alloca i32, align 4
  %5 = alloca i32, align 4
  %6 = alloca i32, align 4
  store ptr %0, ptr %3, align 8, !tbaa !19
  call void @llvm.lifetime.start.p0(i64 4, ptr %4) #13
  %7 = load ptr, ptr %3, align 8, !tbaa !19
  %8 = load i32, ptr %7, align 4, !tbaa !21
  %9 = call i32 @ffs(i32 noundef %8) #15
  store i32 %9, ptr %4, align 4, !tbaa !21
  %10 = load i32, ptr %4, align 4, !tbaa !21
  %11 = icmp eq i32 %10, 0
  br i1 %11, label %12, label %13

12:                                               ; preds = %1
  store i32 14, ptr %2, align 4
  store i32 1, ptr %5, align 4
  br label %22

13:                                               ; preds = %1
  call void @llvm.lifetime.start.p0(i64 4, ptr %6) #13
  %14 = load i32, ptr %4, align 4, !tbaa !21
  %15 = sub i32 %14, 1
  store i32 %15, ptr %6, align 4, !tbaa !7
  %16 = load i32, ptr %6, align 4, !tbaa !7
  %17 = load ptr, ptr %3, align 8, !tbaa !19
  %18 = load i32, ptr %17, align 4, !tbaa !21
  %19 = call noundef i32 @_ZN4cvc58internal6theory15TheoryIdSetUtil9setRemoveENS1_8TheoryIdEj(i32 noundef %16, i32 noundef %18)
  %20 = load ptr, ptr %3, align 8, !tbaa !19
  store i32 %19, ptr %20, align 4, !tbaa !21
  %21 = load i32, ptr %6, align 4, !tbaa !7
  store i32 %21, ptr %2, align 4
  store i32 1, ptr %5, align 4
  call void @llvm.lifetime.end.p0(i64 4, ptr %6) #13
  br label %22

22:                                               ; preds = %13, %12
  call void @llvm.lifetime.end.p0(i64 4, ptr %4) #13
  %23 = load i32, ptr %2, align 4
  ret i32 %23
}

; Function Attrs: mustprogress uwtable
define hidden noundef i64 @_ZN4cvc58internal6theory15TheoryIdSetUtil8setIndexENS1_8TheoryIdEj(i32 noundef %0, i32 noundef %1) #1 align 2 {
  %3 = alloca i32, align 4
  %4 = alloca i32, align 4
  %5 = alloca i64, align 8
  store i32 %0, ptr %3, align 4, !tbaa !7
  store i32 %1, ptr %4, align 4, !tbaa !21
  call void @llvm.lifetime.start.p0(i64 8, ptr %5) #13
  store i64 0, ptr %5, align 8, !tbaa !23
  br label %6

6:                                                ; preds = %10, %2
  %7 = call noundef i32 @_ZN4cvc58internal6theory15TheoryIdSetUtil6setPopERj(ptr noundef nonnull align 4 dereferenceable(4) %4)
  %8 = load i32, ptr %3, align 4, !tbaa !7
  %9 = icmp ne i32 %7, %8
  br i1 %9, label %10, label %13

10:                                               ; preds = %6
  %11 = load i64, ptr %5, align 8, !tbaa !23
  %12 = add i64 %11, 1
  store i64 %12, ptr %5, align 8, !tbaa !23
  br label %6, !llvm.loop !27

13:                                               ; preds = %6
  %14 = load i64, ptr %5, align 8, !tbaa !23
  call void @llvm.lifetime.end.p0(i64 8, ptr %5) #13
  ret i64 %14
}