; Function Attrs: mustprogress nofree norecurse nosync nounwind willreturn memory(none) uwtable
define hidden noundef i64 @_ZN4cvc58internal6theory15TheoryIdSetUtil8setIndexENS1_8TheoryIdEj(i32 noundef %0, i32 noundef %1) local_unnamed_addr #1 align 2 {
  br label %3

3:                                                ; preds = %_ZN4cvc58internal6theory15TheoryIdSetUtil6setPopERj.exit, %2
  %.03 = phi i32 [ %1, %2 ], [ %.1, %_ZN4cvc58internal6theory15TheoryIdSetUtil6setPopERj.exit ]
  %.0 = phi i64 [ 0, %2 ], [ %8, %_ZN4cvc58internal6theory15TheoryIdSetUtil6setPopERj.exit ]
  %.not.i = icmp eq i32 %.03, 0
  br i1 %.not.i, label %_ZN4cvc58internal6theory15TheoryIdSetUtil6setPopERj.exit, label %4

4:                                                ; preds = %3
  %cttz.i = tail call range(i32 0, 33) i32 @llvm.cttz.i32(i32 %.03, i1 true)
  %5 = shl nuw i32 1, %cttz.i
  %6 = xor i32 %5, -1
  %7 = and i32 %.03, %6
  br label %_ZN4cvc58internal6theory15TheoryIdSetUtil6setPopERj.exit

_ZN4cvc58internal6theory15TheoryIdSetUtil6setPopERj.exit: ; preds = %3, %4
  %.1 = phi i32 [ 0, %3 ], [ %7, %4 ]
  %.0.i = phi i32 [ 14, %3 ], [ %cttz.i, %4 ]
  %.not = icmp eq i32 %.0.i, %0
  %8 = add i64 %.0, 1
  br i1 %.not, label %9, label %3, !llvm.loop !21

9:                                                ; preds = %_ZN4cvc58internal6theory15TheoryIdSetUtil6setPopERj.exit
  ret i64 %.0
}